target datalayout = "e-m:e-p270:32:32-p271:32:32-p272:64:64-i64:64-i128:128-f80:128-n8:16:32:64-S128"
target triple = "x86_64-pc-linux-gnu"

%struct.dbd_modify_msg_t = type { ptr, ptr }

@.str = private unnamed_addr constant [16 x i8] c"slurmdbd_pack.c\00", align 1
@.str.2 = private unnamed_addr constant [24 x i8] c"%s: Unknown unpack type\00", align 1
@__func__._unpack_modify_msg = private unnamed_addr constant [19 x i8] c"_unpack_modify_msg\00", align 1

; Function Attrs: nounwind uwtable
define internal i32 @_unpack_modify_msg(ptr noundef %0, i16 noundef zeroext %1, i32 noundef %2, ptr noundef %3) #0 {
  %5 = alloca i32, align 4
  %6 = alloca ptr, align 8
  %7 = alloca i16, align 2
  %8 = alloca i32, align 4
  %9 = alloca ptr, align 8
  %10 = alloca ptr, align 8
  %11 = alloca ptr, align 8
  %12 = alloca ptr, align 8
  %13 = alloca i32, align 4
  store ptr %0, ptr %6, align 8
  store i16 %1, ptr %7, align 2
  store i32 %2, ptr %8, align 4
  store ptr %3, ptr %9, align 8
  call void @llvm.lifetime.start.p0(i64 8, ptr %10) #5
  store ptr null, ptr %10, align 8
  call void @llvm.lifetime.start.p0(i64 8, ptr %11) #5
  call void @llvm.lifetime.start.p0(i64 8, ptr %12) #5
  %14 = call ptr @slurm_xcalloc(i64 noundef 1, i64 noundef 16, i1 noundef zeroext true, i1 noundef zeroext false, ptr noundef @.str, i32 noundef 977, ptr noundef @__func__._unpack_modify_msg)
  store ptr %14, ptr %10, align 8
  %15 = load ptr, ptr %10, align 8
  %16 = load ptr, ptr %6, align 8
  store ptr %15, ptr %16, align 8
  %17 = load i32, ptr %8, align 4
  switch i32 %17, label %28 [
    i32 1428, label %18
    i32 1429, label %19
    i32 1430, label %20
    i32 1496, label %21
    i32 1476, label %22
    i32 1451, label %23
    i32 1481, label %24
    i32 1431, label %25
    i32 1501, label %26
    i32 1502, label %27
  ]

18:                                               ; preds = %4
  store ptr @slurmdb_unpack_account_cond, ptr %11, align 8
  store ptr @slurmdb_unpack_account_rec, ptr %12, align 8
  br label %29

19:                                               ; preds = %4
  store ptr @slurmdb_unpack_assoc_cond, ptr %11, align 8
  store ptr @slurmdb_unpack_assoc_rec, ptr %12, align 8
  br label %29

20:                                               ; preds = %4
  store ptr @slurmdb_unpack_cluster_cond, ptr %11, align 8
  store ptr @slurmdb_unpack_cluster_rec, ptr %12, align 8
  br label %29

21:                                               ; preds = %4
  store ptr @slurmdb_unpack_federation_cond, ptr %11, align 8
  store ptr @slurmdb_unpack_federation_rec, ptr %12, align 8
  br label %29

22:                                               ; preds = %4
  store ptr @slurmdb_unpack_job_cond, ptr %11, align 8
  store ptr @slurmdb_unpack_job_rec, ptr %12, align 8
  br label %29

23:                                               ; preds = %4
  store ptr @slurmdb_unpack_qos_cond, ptr %11, align 8
  store ptr @slurmdb_unpack_qos_rec, ptr %12, align 8
  br label %29

24:                                               ; preds = %4
  store ptr @slurmdb_unpack_res_cond, ptr %11, align 8
  store ptr @slurmdb_unpack_res_rec, ptr %12, align 8
  br label %29

25:                                               ; preds = %4
  store ptr @slurmdb_unpack_user_cond, ptr %11, align 8
  store ptr @slurmdb_unpack_user_rec, ptr %12, align 8
  br label %29

26:                                               ; preds = %4
  store ptr @slurmdb_unpack_add_assoc_cond, ptr %11, align 8
  store ptr @slurmdb_unpack_account_rec, ptr %12, align 8
  br label %29

27:                                               ; preds = %4
  store ptr @slurmdb_unpack_add_assoc_cond, ptr %11, align 8
  store ptr @slurmdb_unpack_user_rec, ptr %12, align 8
  br label %29

28:                                               ; preds = %4
  call void (ptr, ...) @fatal(ptr noundef @.str.2, ptr noundef @__func__._unpack_modify_msg) #7
  unreachable

29:                                               ; preds = %27, %26, %25, %24, %23, %22, %21, %20, %19, %18
  %30 = load ptr, ptr %11, align 8
  %31 = load ptr, ptr %10, align 8
  %32 = getelementptr inbounds nuw %struct.dbd_modify_msg_t, ptr %31, i32 0, i32 0
  %33 = load i16, ptr %7, align 2
  %34 = load ptr, ptr %9, align 8
  %35 = call i32 %30(ptr noundef %32, i16 noundef zeroext %33, ptr noundef %34)
  %36 = icmp eq i32 %35, -1
  br i1 %36, label %37, label %38

37:                                               ; preds = %29
  br label %48

38:                                               ; preds = %29
  %39 = load ptr, ptr %12, align 8
  %40 = load ptr, ptr %10, align 8
  %41 = getelementptr inbounds nuw %struct.dbd_modify_msg_t, ptr %40, i32 0, i32 1
  %42 = load i16, ptr %7, align 2
  %43 = load ptr, ptr %9, align 8
  %44 = call i32 %39(ptr noundef %41, i16 noundef zeroext %42, ptr noundef %43)
  %45 = icmp eq i32 %44, -1
  br i1 %45, label %46, label %47

46:                                               ; preds = %38
  br label %48

47:                                               ; preds = %38
  store i32 0, ptr %5, align 4
  store i32 1, ptr %13, align 4
  br label %52

48:                                               ; preds = %46, %37
  %49 = load ptr, ptr %10, align 8
  %50 = load i32, ptr %8, align 4
  call void @slurmdbd_free_modify_msg(ptr noundef %49, i32 noundef %50)
  %51 = load ptr, ptr %6, align 8
  store ptr null, ptr %51, align 8
  store i32 -1, ptr %5, align 4
  store i32 1, ptr %13, align 4
  br label %52

52:                                               ; preds = %48, %47
  call void @llvm.lifetime.end.p0(i64 8, ptr %12) #5
  call void @llvm.lifetime.end.p0(i64 8, ptr %11) #5
  call void @llvm.lifetime.end.p0(i64 8, ptr %10) #5
  %53 = load i32, ptr %5, align 4
  ret i32 %53
}