; Function Attrs: nounwind uwtable
define internal fastcc range(i32 -1, 1) i32 @_unpack_modify_msg(ptr noundef writeonly captures(none) initializes((0, 8)) %0, i16 noundef zeroext %1, i32 noundef range(i32 0, 65536) %2, ptr noundef %3) unnamed_addr #0 {
  %5 = tail call ptr @slurm_xcalloc(i64 noundef 1, i64 noundef 16, i1 noundef zeroext true, i1 noundef zeroext false, ptr noundef nonnull @.str, i32 noundef 977, ptr noundef nonnull @__func__._unpack_modify_msg) #5
  store ptr %5, ptr %0, align 8
  %trunc = trunc nuw i32 %2 to i16
  switch i16 %trunc, label %15 [
    i16 1428, label %16
    i16 1429, label %6
    i16 1430, label %7
    i16 1496, label %8
    i16 1476, label %9
    i16 1451, label %10
    i16 1481, label %11
    i16 1431, label %12
    i16 1501, label %13
    i16 1502, label %14
  ]

6:                                                ; preds = %4
  br label %16

7:                                                ; preds = %4
  br label %16

8:                                                ; preds = %4
  br label %16

9:                                                ; preds = %4
  br label %16

10:                                               ; preds = %4
  br label %16

11:                                               ; preds = %4
  br label %16

12:                                               ; preds = %4
  br label %16

13:                                               ; preds = %4
  br label %16

14:                                               ; preds = %4
  br label %16

15:                                               ; preds = %4
  tail call void (ptr, ...) @fatal(ptr noundef nonnull @.str.2, ptr noundef nonnull @__func__._unpack_modify_msg) #6
  unreachable

16:                                               ; preds = %4, %14, %13, %12, %11, %10, %9, %8, %7, %6
  %.014 = phi ptr [ @slurmdb_unpack_add_assoc_cond, %14 ], [ @slurmdb_unpack_add_assoc_cond, %13 ], [ @slurmdb_unpack_user_cond, %12 ], [ @slurmdb_unpack_res_cond, %11 ], [ @slurmdb_unpack_qos_cond, %10 ], [ @slurmdb_unpack_job_cond, %9 ], [ @slurmdb_unpack_federation_cond, %8 ], [ @slurmdb_unpack_cluster_cond, %7 ], [ @slurmdb_unpack_assoc_cond, %6 ], [ @slurmdb_unpack_account_cond, %4 ]
  %.0 = phi ptr [ @slurmdb_unpack_user_rec, %14 ], [ @slurmdb_unpack_account_rec, %13 ], [ @slurmdb_unpack_user_rec, %12 ], [ @slurmdb_unpack_res_rec, %11 ], [ @slurmdb_unpack_qos_rec, %10 ], [ @slurmdb_unpack_job_rec, %9 ], [ @slurmdb_unpack_federation_rec, %8 ], [ @slurmdb_unpack_cluster_rec, %7 ], [ @slurmdb_unpack_assoc_rec, %6 ], [ @slurmdb_unpack_account_rec, %4 ]
  %17 = tail call i32 %.014(ptr noundef %5, i16 noundef zeroext %1, ptr noundef %3) #5
  %18 = icmp eq i32 %17, -1
  br i1 %18, label %23, label %19

19:                                               ; preds = %16
  %20 = getelementptr inbounds nuw i8, ptr %5, i64 8
  %21 = tail call i32 %.0(ptr noundef nonnull %20, i16 noundef zeroext %1, ptr noundef %3) #5
  %22 = icmp eq i32 %21, -1
  br i1 %22, label %23, label %24

23:                                               ; preds = %19, %16
  tail call void @slurmdbd_free_modify_msg(ptr noundef %5, i32 noundef %2) #5
  store ptr null, ptr %0, align 8
  br label %24

24:                                               ; preds = %19, %23
  %.015 = phi i32 [ -1, %23 ], [ 0, %19 ]
  ret i32 %.015
}